target datalayout = "e-m:e-p270:32:32-p271:32:32-p272:64:64-i64:64-i128:128-f80:128-n8:16:32:64-S128"
target triple = "x86_64-pc-linux-gnu"

%"class.cv::dynafu::Quaternion" = type { %"class.cv::Vec" }
%"class.cv::Vec" = type { %"class.cv::Matx" }
%"class.cv::Matx" = type { [4 x float] }
%"class.cv::dynafu::DualQuaternion" = type { %"class.cv::dynafu::Quaternion", %"class.cv::dynafu::Quaternion" }

; Function Attrs: inlinehint mustprogress nounwind uwtable
define internal noundef float @_ZN2cvL13saturate_castIfEET_f(float noundef %0) #3 {
  %2 = alloca float, align 4
  store float %0, ptr %2, align 4, !tbaa !10
  %3 = load float, ptr %2, align 4, !tbaa !10
  ret float %3
}

; Function Attrs: inlinehint mustprogress nounwind uwtable
define internal noundef nonnull align 4 dereferenceable(16) ptr @_ZN2cvpLIffLi4EEERNS_3VecIT_XT1_EEES4_RKNS1_IT0_XT1_EEE(ptr noundef nonnull align 4 dereferenceable(16) %0, ptr noundef nonnull align 4 dereferenceable(16) %1) #3 {
  %3 = alloca ptr, align 8
  %4 = alloca ptr, align 8
  %5 = alloca i32, align 4
  store ptr %0, ptr %3, align 8, !tbaa !8
  store ptr %1, ptr %4, align 8, !tbaa !8
  call void @llvm.lifetime.start.p0(i64 4, ptr %5) #13
  store i32 0, ptr %5, align 4, !tbaa !16
  br label %6

6:                                                ; preds = %30, %2
  %7 = load i32, ptr %5, align 4, !tbaa !16
  %8 = icmp slt i32 %7, 4
  br i1 %8, label %10, label %9

9:                                                ; preds = %6
  call void @llvm.lifetime.end.p0(i64 4, ptr %5) #13
  br label %33

10:                                               ; preds = %6
  %11 = load ptr, ptr %3, align 8, !tbaa !8
  %12 = getelementptr inbounds nuw %"class.cv::Matx", ptr %11, i32 0, i32 0
  %13 = load i32, ptr %5, align 4, !tbaa !16
  %14 = sext i32 %13 to i64
  %15 = getelementptr inbounds [4 x float], ptr %12, i64 0, i64 %14
  %16 = load float, ptr %15, align 4, !tbaa !10
  %17 = load ptr, ptr %4, align 8, !tbaa !8
  %18 = getelementptr inbounds nuw %"class.cv::Matx", ptr %17, i32 0, i32 0
  %19 = load i32, ptr %5, align 4, !tbaa !16
  %20 = sext i32 %19 to i64
  %21 = getelementptr inbounds [4 x float], ptr %18, i64 0, i64 %20
  %22 = load float, ptr %21, align 4, !tbaa !10
  %23 = fadd float %16, %22
  %24 = call noundef float @_ZN2cvL13saturate_castIfEET_f(float noundef %23)
  %25 = load ptr, ptr %3, align 8, !tbaa !8
  %26 = getelementptr inbounds nuw %"class.cv::Matx", ptr %25, i32 0, i32 0
  %27 = load i32, ptr %5, align 4, !tbaa !16
  %28 = sext i32 %27 to i64
  %29 = getelementptr inbounds [4 x float], ptr %26, i64 0, i64 %28
  store float %24, ptr %29, align 4, !tbaa !10
  br label %30

30:                                               ; preds = %10
  %31 = load i32, ptr %5, align 4, !tbaa !16
  %32 = add nsw i32 %31, 1
  store i32 %32, ptr %5, align 4, !tbaa !16
  br label %6, !llvm.loop !26

33:                                               ; preds = %9
  %34 = load ptr, ptr %3, align 8, !tbaa !8
  ret ptr %34
}

; Function Attrs: mustprogress uwtable
define hidden noundef nonnull align 4 dereferenceable(16) ptr @_ZN2cv6dynafupLERNS0_10QuaternionERKS1_(ptr noundef nonnull align 4 dereferenceable(16) %0, ptr noundef nonnull align 4 dereferenceable(16) %1) #0 {
  %3 = alloca ptr, align 8
  %4 = alloca ptr, align 8
  store ptr %0, ptr %3, align 8, !tbaa !3
  store ptr %1, ptr %4, align 8, !tbaa !3
  %5 = load ptr, ptr %4, align 8, !tbaa !3
  %6 = getelementptr inbounds nuw %"class.cv::dynafu::Quaternion", ptr %5, i32 0, i32 0
  %7 = load ptr, ptr %3, align 8, !tbaa !3
  %8 = getelementptr inbounds nuw %"class.cv::dynafu::Quaternion", ptr %7, i32 0, i32 0
  %9 = call noundef nonnull align 4 dereferenceable(16) ptr @_ZN2cvpLIffLi4EEERNS_3VecIT_XT1_EEES4_RKNS1_IT0_XT1_EEE(ptr noundef nonnull align 4 dereferenceable(16) %8, ptr noundef nonnull align 4 dereferenceable(16) %6)
  %10 = load ptr, ptr %3, align 8, !tbaa !3
  ret ptr %10
}

; Function Attrs: mustprogress uwtable
define hidden noundef nonnull align 4 dereferenceable(32) ptr @_ZN2cv6dynafupLERNS0_14DualQuaternionERKS1_(ptr noundef nonnull align 4 dereferenceable(32) %0, ptr noundef nonnull align 4 dereferenceable(32) %1) #0 {
  %3 = alloca ptr, align 8
  %4 = alloca ptr, align 8
  store ptr %0, ptr %3, align 8, !tbaa !28
  store ptr %1, ptr %4, align 8, !tbaa !28
  %5 = load ptr, ptr %4, align 8, !tbaa !28
  %6 = getelementptr inbounds nuw %"class.cv::dynafu::DualQuaternion", ptr %5, i32 0, i32 0
  %7 = load ptr, ptr %3, align 8, !tbaa !28
  %8 = getelementptr inbounds nuw %"class.cv::dynafu::DualQuaternion", ptr %7, i32 0, i32 0
  %9 = call noundef nonnull align 4 dereferenceable(16) ptr @_ZN2cv6dynafupLERNS0_10QuaternionERKS1_(ptr noundef nonnull align 4 dereferenceable(16) %8, ptr noundef nonnull align 4 dereferenceable(16) %6)
  %10 = load ptr, ptr %4, align 8, !tbaa !28
  %11 = getelementptr inbounds nuw %"class.cv::dynafu::DualQuaternion", ptr %10, i32 0, i32 1
  %12 = load ptr, ptr %3, align 8, !tbaa !28
  %13 = getelementptr inbounds nuw %"class.cv::dynafu::DualQuaternion", ptr %12, i32 0, i32 1
  %14 = call noundef nonnull align 4 dereferenceable(16) ptr @_ZN2cv6dynafupLERNS0_10QuaternionERKS1_(ptr noundef nonnull align 4 dereferenceable(16) %13, ptr noundef nonnull align 4 dereferenceable(16) %11)
  %15 = load ptr, ptr %3, align 8, !tbaa !28
  ret ptr %15
}