; Function Attrs: mustprogress nofree norecurse nosync nounwind memory(argmem: readwrite) uwtable
define hidden noundef nonnull align 4 dereferenceable(32) ptr @_ZN2cv6dynafupLERNS0_14DualQuaternionERKS1_(ptr noundef nonnull returned align 4 dereferenceable(32) %0, ptr noundef nonnull readonly align 4 captures(none) dereferenceable(32) %1) local_unnamed_addr #7 {
  br label %3

3:                                                ; preds = %3, %2
  %indvars.iv.i.i = phi i64 [ 0, %2 ], [ %indvars.iv.next.i.i, %3 ]
  %4 = getelementptr inbounds nuw [4 x float], ptr %0, i64 0, i64 %indvars.iv.i.i
  %5 = load float, ptr %4, align 4, !tbaa !3
  %6 = getelementptr inbounds nuw [4 x float], ptr %1, i64 0, i64 %indvars.iv.i.i
  %7 = load float, ptr %6, align 4, !tbaa !3
  %8 = fadd float %5, %7
  store float %8, ptr %4, align 4, !tbaa !3
  %indvars.iv.next.i.i = add nuw nsw i64 %indvars.iv.i.i, 1
  %exitcond.not.i.i = icmp eq i64 %indvars.iv.next.i.i, 4
  br i1 %exitcond.not.i.i, label %_ZN2cv6dynafupLERNS0_10QuaternionERKS1_.exit, label %3, !llvm.loop !29

_ZN2cv6dynafupLERNS0_10QuaternionERKS1_.exit:     ; preds = %3
  %9 = getelementptr inbounds nuw i8, ptr %1, i64 16
  %10 = getelementptr inbounds nuw i8, ptr %0, i64 16
  br label %11

11:                                               ; preds = %11, %_ZN2cv6dynafupLERNS0_10QuaternionERKS1_.exit
  %indvars.iv.i.i5 = phi i64 [ 0, %_ZN2cv6dynafupLERNS0_10QuaternionERKS1_.exit ], [ %indvars.iv.next.i.i6, %11 ]
  %12 = getelementptr inbounds nuw [4 x float], ptr %10, i64 0, i64 %indvars.iv.i.i5
  %13 = load float, ptr %12, align 4, !tbaa !3
  %14 = getelementptr inbounds nuw [4 x float], ptr %9, i64 0, i64 %indvars.iv.i.i5
  %15 = load float, ptr %14, align 4, !tbaa !3
  %16 = fadd float %13, %15
  store float %16, ptr %12, align 4, !tbaa !3
  %indvars.iv.next.i.i6 = add nuw nsw i64 %indvars.iv.i.i5, 1
  %exitcond.not.i.i7 = icmp eq i64 %indvars.iv.next.i.i6, 4
  br i1 %exitcond.not.i.i7, label %_ZN2cv6dynafupLERNS0_10QuaternionERKS1_.exit8, label %11, !llvm.loop !29

_ZN2cv6dynafupLERNS0_10QuaternionERKS1_.exit8:    ; preds = %11
  ret ptr %0
}